target datalayout = "e-m:e-p270:32:32-p271:32:32-p272:64:64-i64:64-i128:128-f80:128-n8:16:32:64-S128"
target triple = "x86_64-pc-linux-gnu"

%struct.H5O_linfo_t = type { i8, i8, i64, i64, i64, i64, i64 }
%struct.H5O_loc_t = type { ptr, i64, i8 }

@H5G_init_g = external global i8, align 1
@H5_libterm_g = external global i8, align 1
@.str = private unnamed_addr constant [100 x i8] c"generated/home/dtcxzyw/WorkSpace/Projects/compilers/llvm-opt-benchmark/bench/hdf5/hdf5/src/H5Gobj.c\00", align 1
@H5E_SYM_g = external global i64, align 8
@H5E_CANTGET_g = external global i64, align 8
@H5E_CANTINIT_g = external global i64, align 8
@H5E_FUNC_g = external global i64, align 8
@.str.18 = private unnamed_addr constant [32 x i8] c"interface initialization failed\00", align 1
@.str.19 = private unnamed_addr constant [34 x i8] c"can't check for link info message\00", align 1
@H5E_NOTFOUND_g = external global i64, align 8
@__func__.H5G_obj_remove = private unnamed_addr constant [15 x i8] c"H5G_obj_remove\00", align 1
@.str.45 = private unnamed_addr constant [20 x i8] c"can't remove object\00", align 1
@H5E_CANTUPDATE_g = external global i64, align 8
@.str.46 = private unnamed_addr constant [27 x i8] c"unable to update link info\00", align 1

; Function Attrs: nounwind uwtable
define i32 @H5G_obj_remove(ptr noundef %0, ptr noundef %1, ptr noundef %2) #0 {
  %4 = alloca ptr, align 8
  %5 = alloca ptr, align 8
  %6 = alloca ptr, align 8
  %7 = alloca %struct.H5O_linfo_t, align 8
  %8 = alloca i32, align 4
  %9 = alloca i8, align 1
  %10 = alloca i32, align 4
  %11 = alloca i64, align 8
  %12 = alloca i8, align 1
  store ptr %0, ptr %4, align 8, !tbaa !10
  store ptr %1, ptr %5, align 8, !tbaa !97
  store ptr %2, ptr %6, align 8, !tbaa !96
  call void @llvm.lifetime.start.p0(i64 48, ptr %7) #6
  call void @llvm.lifetime.start.p0(i64 4, ptr %8) #6
  call void @llvm.lifetime.start.p0(i64 1, ptr %9) #6
  call void @llvm.lifetime.start.p0(i64 4, ptr %10) #6
  store i32 0, ptr %10, align 4, !tbaa !12
  call void @llvm.lifetime.start.p0(i64 8, ptr %11) #6
  store i64 -1, ptr %11, align 8, !tbaa !23
  call void @llvm.lifetime.start.p0(i64 1, ptr %12) #6
  store i8 0, ptr %12, align 1, !tbaa !14
  %13 = load ptr, ptr %4, align 8, !tbaa !10
  %14 = getelementptr inbounds nuw %struct.H5O_loc_t, ptr %13, i32 0, i32 1
  %15 = load i64, ptr %14, align 8, !tbaa !56
  call void @H5AC_tag(i64 noundef %15, ptr noundef %11)
  %16 = load i8, ptr @H5G_init_g, align 1, !tbaa !14, !range !16, !noundef !17
  %17 = trunc i8 %16 to i1
  br i1 %17, label %22, label %18

18:                                               ; preds = %3
  %19 = load i8, ptr @H5_libterm_g, align 1, !tbaa !14, !range !16, !noundef !17
  %20 = trunc i8 %19 to i1
  %21 = xor i1 %20, true
  br label %22

22:                                               ; preds = %18, %3
  %23 = phi i1 [ false, %3 ], [ %21, %18 ]
  %24 = xor i1 %23, true
  %25 = xor i1 %24, true
  %26 = zext i1 %25 to i32
  %27 = sext i32 %26 to i64
  %28 = call i64 @llvm.expect.i64(i64 %27, i64 0)
  %29 = icmp ne i64 %28, 0
  br i1 %29, label %30, label %53

30:                                               ; preds = %22
  store i8 1, ptr @H5G_init_g, align 1, !tbaa !14
  %31 = call i32 @H5G__init_package()
  %32 = icmp slt i32 %31, 0
  br i1 %32, label %33, label %52

33:                                               ; preds = %30
  store i8 0, ptr @H5G_init_g, align 1, !tbaa !14
  br label %34

34:                                               ; preds = %33
  br label %35

35:                                               ; preds = %34
  br label %36

36:                                               ; preds = %35
  %37 = load i64, ptr @H5E_FUNC_g, align 8, !tbaa !23
  %38 = load i64, ptr @H5E_CANTINIT_g, align 8, !tbaa !23
  %39 = call i32 (ptr, ptr, i32, i64, i64, ptr, ...) @H5E_printf_stack(ptr noundef @.str, ptr noundef @__func__.H5G_obj_remove, i32 noundef 932, i64 noundef %37, i64 noundef %38, ptr noundef @.str.18)
  br label %40

40:                                               ; preds = %36
  br label %41

41:                                               ; preds = %40
  store i8 1, ptr %12, align 1, !tbaa !14
  %42 = load i8, ptr %12, align 1, !tbaa !14, !range !16, !noundef !17
  %43 = trunc i8 %42 to i1
  %44 = zext i1 %43 to i8
  store i8 %44, ptr %12, align 1, !tbaa !14
  br label %45

45:                                               ; preds = %41
  br label %46

46:                                               ; preds = %45
  br label %47

47:                                               ; preds = %46
  store i32 -1, ptr %10, align 4, !tbaa !12
  br label %207

48:                                               ; No predecessors!
  br label %49

49:                                               ; preds = %48
  br label %50

50:                                               ; preds = %49
  br label %51

51:                                               ; preds = %50
  br label %52

52:                                               ; preds = %51, %30
  br label %53

53:                                               ; preds = %52, %22
  %54 = load i8, ptr @H5G_init_g, align 1, !tbaa !14, !range !16, !noundef !17
  %55 = trunc i8 %54 to i1
  br i1 %55, label %60, label %56

56:                                               ; preds = %53
  %57 = load i8, ptr @H5_libterm_g, align 1, !tbaa !14, !range !16, !noundef !17
  %58 = trunc i8 %57 to i1
  %59 = xor i1 %58, true
  br label %60

60:                                               ; preds = %56, %53
  %61 = phi i1 [ true, %53 ], [ %59, %56 ]
  %62 = xor i1 %61, true
  %63 = xor i1 %62, true
  %64 = zext i1 %63 to i32
  %65 = sext i32 %64 to i64
  %66 = call i64 @llvm.expect.i64(i64 %65, i64 1)
  %67 = icmp ne i64 %66, 0
  br i1 %67, label %68, label %208

68:                                               ; preds = %60
  %69 = load ptr, ptr %4, align 8, !tbaa !10
  %70 = call i32 @H5G__obj_get_linfo(ptr noundef %69, ptr noundef %7)
  store i32 %70, ptr %8, align 4, !tbaa !12
  %71 = icmp slt i32 %70, 0
  br i1 %71, label %72, label %91

72:                                               ; preds = %68
  br label %73

73:                                               ; preds = %72
  br label %74

74:                                               ; preds = %73
  br label %75

75:                                               ; preds = %74
  %76 = load i64, ptr @H5E_SYM_g, align 8, !tbaa !23
  %77 = load i64, ptr @H5E_CANTGET_g, align 8, !tbaa !23
  %78 = call i32 (ptr, ptr, i32, i64, i64, ptr, ...) @H5E_printf_stack(ptr noundef @.str, ptr noundef @__func__.H5G_obj_remove, i32 noundef 940, i64 noundef %76, i64 noundef %77, ptr noundef @.str.19)
  br label %79

79:                                               ; preds = %75
  br label %80

80:                                               ; preds = %79
  store i8 1, ptr %12, align 1, !tbaa !14
  %81 = load i8, ptr %12, align 1, !tbaa !14, !range !16, !noundef !17
  %82 = trunc i8 %81 to i1
  %83 = zext i1 %82 to i8
  store i8 %83, ptr %12, align 1, !tbaa !14
  br label %84

84:                                               ; preds = %80
  br label %85

85:                                               ; preds = %84
  br label %86

86:                                               ; preds = %85
  store i32 -1, ptr %10, align 4, !tbaa !12
  br label %207

87:                                               ; No predecessors!
  br label %88

88:                                               ; preds = %87
  br label %89

89:                                               ; preds = %88
  br label %90

90:                                               ; preds = %89
  br label %91

91:                                               ; preds = %90, %68
  %92 = load i32, ptr %8, align 4, !tbaa !12
  %93 = icmp ne i32 %92, 0
  br i1 %93, label %94, label %153

94:                                               ; preds = %91
  store i8 0, ptr %9, align 1, !tbaa !14
  %95 = getelementptr inbounds nuw %struct.H5O_linfo_t, ptr %7, i32 0, i32 5
  %96 = load i64, ptr %95, align 8, !tbaa !59
  %97 = icmp ne i64 %96, -1
  br i1 %97, label %98, label %126

98:                                               ; preds = %94
  %99 = load ptr, ptr %4, align 8, !tbaa !10
  %100 = getelementptr inbounds nuw %struct.H5O_loc_t, ptr %99, i32 0, i32 0
  %101 = load ptr, ptr %100, align 8, !tbaa !60
  %102 = load ptr, ptr %5, align 8, !tbaa !97
  %103 = load ptr, ptr %6, align 8, !tbaa !96
  %104 = call i32 @H5G__dense_remove(ptr noundef %101, ptr noundef %7, ptr noundef %102, ptr noundef %103)
  %105 = icmp slt i32 %104, 0
  br i1 %105, label %106, label %125

106:                                              ; preds = %98
  br label %107

107:                                              ; preds = %106
  br label %108

108:                                              ; preds = %107
  br label %109

109:                                              ; preds = %108
  %110 = load i64, ptr @H5E_SYM_g, align 8, !tbaa !23
  %111 = load i64, ptr @H5E_NOTFOUND_g, align 8, !tbaa !23
  %112 = call i32 (ptr, ptr, i32, i64, i64, ptr, ...) @H5E_printf_stack(ptr noundef @.str, ptr noundef @__func__.H5G_obj_remove, i32 noundef 949, i64 noundef %110, i64 noundef %111, ptr noundef @.str.45)
  br label %113

113:                                              ; preds = %109
  br label %114

114:                                              ; preds = %113
  store i8 1, ptr %12, align 1, !tbaa !14
  %115 = load i8, ptr %12, align 1, !tbaa !14, !range !16, !noundef !17
  %116 = trunc i8 %115 to i1
  %117 = zext i1 %116 to i8
  store i8 %117, ptr %12, align 1, !tbaa !14
  br label %118

118:                                              ; preds = %114
  br label %119

119:                                              ; preds = %118
  br label %120

120:                                              ; preds = %119
  store i32 -1, ptr %10, align 4, !tbaa !12
  br label %207

121:                                              ; No predecessors!
  br label %122

122:                                              ; preds = %121
  br label %123

123:                                              ; preds = %122
  br label %124

124:                                              ; preds = %123
  br label %125

125:                                              ; preds = %124, %98
  br label %152

126:                                              ; preds = %94
  %127 = load ptr, ptr %4, align 8, !tbaa !10
  %128 = load ptr, ptr %5, align 8, !tbaa !97
  %129 = load ptr, ptr %6, align 8, !tbaa !96
  %130 = call i32 @H5G__compact_remove(ptr noundef %127, ptr noundef %128, ptr noundef %129)
  %131 = icmp slt i32 %130, 0
  br i1 %131, label %132, label %151

132:                                              ; preds = %126
  br label %133

133:                                              ; preds = %132
  br label %134

134:                                              ; preds = %133
  br label %135

135:                                              ; preds = %134
  %136 = load i64, ptr @H5E_SYM_g, align 8, !tbaa !23
  %137 = load i64, ptr @H5E_NOTFOUND_g, align 8, !tbaa !23
  %138 = call i32 (ptr, ptr, i32, i64, i64, ptr, ...) @H5E_printf_stack(ptr noundef @.str, ptr noundef @__func__.H5G_obj_remove, i32 noundef 954, i64 noundef %136, i64 noundef %137, ptr noundef @.str.45)
  br label %139

139:                                              ; preds = %135
  br label %140

140:                                              ; preds = %139
  store i8 1, ptr %12, align 1, !tbaa !14
  %141 = load i8, ptr %12, align 1, !tbaa !14, !range !16, !noundef !17
  %142 = trunc i8 %141 to i1
  %143 = zext i1 %142 to i8
  store i8 %143, ptr %12, align 1, !tbaa !14
  br label %144

144:                                              ; preds = %140
  br label %145

145:                                              ; preds = %144
  br label %146

146:                                              ; preds = %145
  store i32 -1, ptr %10, align 4, !tbaa !12
  br label %207

147:                                              ; No predecessors!
  br label %148

148:                                              ; preds = %147
  br label %149

149:                                              ; preds = %148
  br label %150

150:                                              ; preds = %149
  br label %151

151:                                              ; preds = %150, %126
  br label %152

152:                                              ; preds = %151, %125
  br label %179

153:                                              ; preds = %91
  store i8 1, ptr %9, align 1, !tbaa !14
  %154 = load ptr, ptr %4, align 8, !tbaa !10
  %155 = load ptr, ptr %5, align 8, !tbaa !97
  %156 = load ptr, ptr %6, align 8, !tbaa !96
  %157 = call i32 @H5G__stab_remove(ptr noundef %154, ptr noundef %155, ptr noundef %156)
  %158 = icmp slt i32 %157, 0
  br i1 %158, label %159, label %178

159:                                              ; preds = %153
  br label %160

160:                                              ; preds = %159
  br label %161

161:                                              ; preds = %160
  br label %162

162:                                              ; preds = %161
  %163 = load i64, ptr @H5E_SYM_g, align 8, !tbaa !23
  %164 = load i64, ptr @H5E_NOTFOUND_g, align 8, !tbaa !23
  %165 = call i32 (ptr, ptr, i32, i64, i64, ptr, ...) @H5E_printf_stack(ptr noundef @.str, ptr noundef @__func__.H5G_obj_remove, i32 noundef 962, i64 noundef %163, i64 noundef %164, ptr noundef @.str.45)
  br label %166

166:                                              ; preds = %162
  br label %167

167:                                              ; preds = %166
  store i8 1, ptr %12, align 1, !tbaa !14
  %168 = load i8, ptr %12, align 1, !tbaa !14, !range !16, !noundef !17
  %169 = trunc i8 %168 to i1
  %170 = zext i1 %169 to i8
  store i8 %170, ptr %12, align 1, !tbaa !14
  br label %171

171:                                              ; preds = %167
  br label %172

172:                                              ; preds = %171
  br label %173

173:                                              ; preds = %172
  store i32 -1, ptr %10, align 4, !tbaa !12
  br label %207

174:                                              ; No predecessors!
  br label %175

175:                                              ; preds = %174
  br label %176

176:                                              ; preds = %175
  br label %177

177:                                              ; preds = %176
  br label %178

178:                                              ; preds = %177, %153
  br label %179

179:                                              ; preds = %178, %152
  %180 = load i8, ptr %9, align 1, !tbaa !14, !range !16, !noundef !17
  %181 = trunc i8 %180 to i1
  br i1 %181, label %206, label %182

182:                                              ; preds = %179
  %183 = load ptr, ptr %4, align 8, !tbaa !10
  %184 = call i32 @H5G__obj_remove_update_linfo(ptr noundef %183, ptr noundef %7)
  %185 = icmp slt i32 %184, 0
  br i1 %185, label %186, label %205

186:                                              ; preds = %182
  br label %187

187:                                              ; preds = %186
  br label %188

188:                                              ; preds = %187
  br label %189

189:                                              ; preds = %188
  %190 = load i64, ptr @H5E_SYM_g, align 8, !tbaa !23
  %191 = load i64, ptr @H5E_CANTUPDATE_g, align 8, !tbaa !23
  %192 = call i32 (ptr, ptr, i32, i64, i64, ptr, ...) @H5E_printf_stack(ptr noundef @.str, ptr noundef @__func__.H5G_obj_remove, i32 noundef 968, i64 noundef %190, i64 noundef %191, ptr noundef @.str.46)
  br label %193

193:                                              ; preds = %189
  br label %194

194:                                              ; preds = %193
  store i8 1, ptr %12, align 1, !tbaa !14
  %195 = load i8, ptr %12, align 1, !tbaa !14, !range !16, !noundef !17
  %196 = trunc i8 %195 to i1
  %197 = zext i1 %196 to i8
  store i8 %197, ptr %12, align 1, !tbaa !14
  br label %198

198:                                              ; preds = %194
  br label %199

199:                                              ; preds = %198
  br label %200

200:                                              ; preds = %199
  store i32 -1, ptr %10, align 4, !tbaa !12
  br label %207

201:                                              ; No predecessors!
  br label %202

202:                                              ; preds = %201
  br label %203

203:                                              ; preds = %202
  br label %204

204:                                              ; preds = %203
  br label %205

205:                                              ; preds = %204, %182
  br label %206

206:                                              ; preds = %205, %179
  br label %207

207:                                              ; preds = %206, %200, %173, %146, %120, %86, %47
  br label %208

208:                                              ; preds = %207, %60
  %209 = load i64, ptr %11, align 8, !tbaa !23
  call void @H5AC_tag(i64 noundef %209, ptr noundef null)
  %210 = load i32, ptr %10, align 4, !tbaa !12
  call void @llvm.lifetime.end.p0(i64 1, ptr %12) #6
  call void @llvm.lifetime.end.p0(i64 8, ptr %11) #6
  call void @llvm.lifetime.end.p0(i64 4, ptr %10) #6
  call void @llvm.lifetime.end.p0(i64 1, ptr %9) #6
  call void @llvm.lifetime.end.p0(i64 4, ptr %8) #6
  call void @llvm.lifetime.end.p0(i64 48, ptr %7) #6
  ret i32 %210
}