; Function Attrs: nounwind uwtable
define range(i32 -1, 1) i32 @H5G_obj_remove(ptr noundef %0, ptr noundef %1, ptr noundef %2) local_unnamed_addr #0 {
  %4 = alloca %struct.H5O_linfo_t, align 8
  %5 = alloca i64, align 8
  call void @llvm.lifetime.start.p0(i64 48, ptr nonnull %4) #5
  call void @llvm.lifetime.start.p0(i64 8, ptr nonnull %5) #5
  store i64 -1, ptr %5, align 8, !tbaa !14
  %6 = getelementptr inbounds nuw i8, ptr %0, i64 8
  %7 = load i64, ptr %6, align 8, !tbaa !41
  call void @H5AC_tag(i64 noundef %7, ptr noundef nonnull %5) #5
  %8 = load i8, ptr @H5G_init_g, align 1, !tbaa !3, !range !7, !noundef !8
  %9 = trunc nuw i8 %8 to i1
  %10 = load i8, ptr @H5_libterm_g, align 1, !range !7
  %11 = trunc nuw i8 %10 to i1
  %12 = select i1 %9, i1 true, i1 %11
  br i1 %12, label %20, label %13, !prof !9

13:                                               ; preds = %3
  store i8 1, ptr @H5G_init_g, align 1, !tbaa !3
  %14 = call i32 @H5G__init_package() #5
  %15 = icmp slt i32 %14, 0
  br i1 %15, label %16, label %._crit_edge

._crit_edge:                                      ; preds = %13
  %.pre = load i8, ptr @H5G_init_g, align 1, !tbaa !3, !range !7
  %.pre23 = load i8, ptr @H5_libterm_g, align 1, !range !7
  %.pre24 = trunc nuw i8 %.pre to i1
  %.pre25 = trunc nuw i8 %.pre23 to i1
  br label %20

16:                                               ; preds = %13
  store i8 0, ptr @H5G_init_g, align 1, !tbaa !3
  %17 = load i64, ptr @H5E_FUNC_g, align 8, !tbaa !14
  %18 = load i64, ptr @H5E_CANTINIT_g, align 8, !tbaa !14
  %19 = call i32 (ptr, ptr, i32, i64, i64, ptr, ...) @H5E_printf_stack(ptr noundef nonnull @.str, ptr noundef nonnull @__func__.H5G_obj_remove, i32 noundef 932, i64 noundef %17, i64 noundef %18, ptr noundef nonnull @.str.18) #5
  br label %63

20:                                               ; preds = %._crit_edge, %3
  %.pre-phi26 = phi i1 [ %.pre25, %._crit_edge ], [ %11, %3 ]
  %.pre-phi = phi i1 [ %.pre24, %._crit_edge ], [ %9, %3 ]
  %21 = xor i1 %.pre-phi26, true
  %22 = select i1 %.pre-phi, i1 true, i1 %21
  br i1 %22, label %23, label %63, !prof !9

23:                                               ; preds = %20
  %24 = call i32 @H5G__obj_get_linfo(ptr noundef nonnull %0, ptr noundef nonnull %4)
  %25 = icmp slt i32 %24, 0
  br i1 %25, label %26, label %30

26:                                               ; preds = %23
  %27 = load i64, ptr @H5E_SYM_g, align 8, !tbaa !14
  %28 = load i64, ptr @H5E_CANTGET_g, align 8, !tbaa !14
  %29 = call i32 (ptr, ptr, i32, i64, i64, ptr, ...) @H5E_printf_stack(ptr noundef nonnull @.str, ptr noundef nonnull @__func__.H5G_obj_remove, i32 noundef 940, i64 noundef %27, i64 noundef %28, ptr noundef nonnull @.str.19) #5
  br label %63

30:                                               ; preds = %23
  %.not = icmp eq i32 %24, 0
  br i1 %.not, label %49, label %31

31:                                               ; preds = %30
  %32 = getelementptr inbounds nuw i8, ptr %4, i64 32
  %33 = load i64, ptr %32, align 8, !tbaa !44
  %.not22 = icmp eq i64 %33, -1
  br i1 %.not22, label %42, label %34

34:                                               ; preds = %31
  %35 = load ptr, ptr %0, align 8, !tbaa !45
  %36 = call i32 @H5G__dense_remove(ptr noundef %35, ptr noundef nonnull %4, ptr noundef %1, ptr noundef %2) #5
  %37 = icmp slt i32 %36, 0
  br i1 %37, label %38, label %56

38:                                               ; preds = %34
  %39 = load i64, ptr @H5E_SYM_g, align 8, !tbaa !14
  %40 = load i64, ptr @H5E_NOTFOUND_g, align 8, !tbaa !14
  %41 = call i32 (ptr, ptr, i32, i64, i64, ptr, ...) @H5E_printf_stack(ptr noundef nonnull @.str, ptr noundef nonnull @__func__.H5G_obj_remove, i32 noundef 949, i64 noundef %39, i64 noundef %40, ptr noundef nonnull @.str.45) #5
  br label %63

42:                                               ; preds = %31
  %43 = call i32 @H5G__compact_remove(ptr noundef nonnull %0, ptr noundef %1, ptr noundef %2) #5
  %44 = icmp slt i32 %43, 0
  br i1 %44, label %45, label %56

45:                                               ; preds = %42
  %46 = load i64, ptr @H5E_SYM_g, align 8, !tbaa !14
  %47 = load i64, ptr @H5E_NOTFOUND_g, align 8, !tbaa !14
  %48 = call i32 (ptr, ptr, i32, i64, i64, ptr, ...) @H5E_printf_stack(ptr noundef nonnull @.str, ptr noundef nonnull @__func__.H5G_obj_remove, i32 noundef 954, i64 noundef %46, i64 noundef %47, ptr noundef nonnull @.str.45) #5
  br label %63

49:                                               ; preds = %30
  %50 = call i32 @H5G__stab_remove(ptr noundef nonnull %0, ptr noundef %1, ptr noundef %2) #5
  %51 = icmp slt i32 %50, 0
  br i1 %51, label %52, label %63

52:                                               ; preds = %49
  %53 = load i64, ptr @H5E_SYM_g, align 8, !tbaa !14
  %54 = load i64, ptr @H5E_NOTFOUND_g, align 8, !tbaa !14
  %55 = call i32 (ptr, ptr, i32, i64, i64, ptr, ...) @H5E_printf_stack(ptr noundef nonnull @.str, ptr noundef nonnull @__func__.H5G_obj_remove, i32 noundef 962, i64 noundef %53, i64 noundef %54, ptr noundef nonnull @.str.45) #5
  br label %63

56:                                               ; preds = %34, %42
  %57 = call fastcc i32 @H5G__obj_remove_update_linfo(ptr noundef nonnull %0, ptr noundef %4)
  %58 = icmp slt i32 %57, 0
  br i1 %58, label %59, label %63

59:                                               ; preds = %56
  %60 = load i64, ptr @H5E_SYM_g, align 8, !tbaa !14
  %61 = load i64, ptr @H5E_CANTUPDATE_g, align 8, !tbaa !14
  %62 = call i32 (ptr, ptr, i32, i64, i64, ptr, ...) @H5E_printf_stack(ptr noundef nonnull @.str, ptr noundef nonnull @__func__.H5G_obj_remove, i32 noundef 968, i64 noundef %60, i64 noundef %61, ptr noundef nonnull @.str.46) #5
  br label %63

63:                                               ; preds = %49, %16, %26, %38, %45, %52, %59, %56, %20
  %.0 = phi i32 [ -1, %16 ], [ -1, %26 ], [ -1, %38 ], [ -1, %59 ], [ 0, %56 ], [ -1, %45 ], [ -1, %52 ], [ 0, %20 ], [ 0, %49 ]
  %64 = load i64, ptr %5, align 8, !tbaa !14
  call void @H5AC_tag(i64 noundef %64, ptr noundef null) #5
  call void @llvm.lifetime.end.p0(i64 8, ptr nonnull %5) #5
  call void @llvm.lifetime.end.p0(i64 48, ptr nonnull %4) #5
  ret i32 %.0
}